#__ZN11AppleFWOHCI10asyncWriteEttmiiP18IOMemoryDescriptormiP16IOFWAsyncCommand14IOFWWriteFlags
__ZN11AppleFWOHCI10gMetaClassE
#__ZN11AppleFWOHCI10setBusTimeEm
#__ZN11AppleFWOHCI10setupAsyncEv
#__ZN11AppleFWOHCI10setupIsochEv
#__ZN11AppleFWOHCI10superClassE
#__ZN11AppleFWOHCI11finishStartEv
#__ZN11AppleFWOHCI11getPhySpeedEv
#__ZN11AppleFWOHCI11restoreGUIDEv
#__ZN11AppleFWOHCI12clipMaxRec2KEb
#__ZN11AppleFWOHCI12destroyAsyncEv
#__ZN11AppleFWOHCI12destroyIsochEv
#__ZN11AppleFWOHCI12getCycleTimeERm
#__ZN11AppleFWOHCI12handlePhyIntEv
#__ZN11AppleFWOHCI12poweredStartEv
#__ZN11AppleFWOHCI12setContenderEb
#__ZN11AppleFWOHCI12setNodeFlagsEtm
#__ZN11AppleFWOHCI13createDCLPoolEm
#__ZN11AppleFWOHCI13getMaxSendLogEv
#__ZN11AppleFWOHCI13hardwareResetEb
#__ZN11AppleFWOHCI13resetAsyncDMAEv
#__ZN11AppleFWOHCI13sendPHYPacketEm
#__ZN11AppleFWOHCI13writeRegisterEPVmmm
#__ZN11AppleFWOHCI14removeMySelfIDEPmm
#__ZN11AppleFWOHCI14setCycleMasterEb
#__ZN11AppleFWOHCI14setRootHoldOffEb
#__ZN11AppleFWOHCI15DisablePHYPortsEv
#__ZN11AppleFWOHCI15createDeviceNubEyPK12IOFWNodeScan
#__ZN11AppleFWOHCI15enablePktReqIntEv
#__ZN11AppleFWOHCI15getBusCycleTimeERmS0_
#__ZN11AppleFWOHCI15handleSelfIDIntEv
#__ZN11AppleFWOHCI15readPhyRegisterEhPh
#__ZN11AppleFWOHCI15setSecurityModeE16IOFWSecurityMode
#__ZN11AppleFWOHCI15setupRobustnessEv
#__ZN11AppleFWOHCI16SendGlobalResumeEv
#__ZN11AppleFWOHCI16createDCLProgramEbP16DCLCommandStructPN13IOFireWireBus11DCLTaskInfoEmmm
#__ZN11AppleFWOHCI16disablePktReqIntEv
#__ZN11AppleFWOHCI16handleCycle64IntEv
#__ZN11AppleFWOHCI16handleInterruptsEP22IOInterruptEventSourcei
#__ZN11AppleFWOHCI16portEventHandlerEP18IOTimerEventSource
#__ZN11AppleFWOHCI16writePhyRegisterEhh
#__ZN11AppleFWOHCI17asyncLockResponseEtiiiiPvi
#__ZN11AppleFWOHCI17asyncReadResponseEtiiiP18IOMemoryDescriptormi
#__ZN11AppleFWOHCI17destroyRobustnessEv
#__ZN11AppleFWOHCI17determineLinkNameEv
#__ZN11AppleFWOHCI17disableInterruptsEv
#__ZN11AppleFWOHCI17handleBusResetIntEv
#__ZN11AppleFWOHCI17scheduleResetLinkEv
#__ZN11AppleFWOHCI17setLinkPowerStateEm
#__ZN11AppleFWOHCI17updateMaxBusStallEv
#__ZN11AppleFWOHCI18ArmPHYForPortEventEb
#__ZN11AppleFWOHCI18asyncWriteResponseEtiiit
#__ZN11AppleFWOHCI18handleAsyncTimeoutEP16IOFWAsyncCommand
#__ZN11AppleFWOHCI18waitForPhyReadDoneEv
#__ZN11AppleFWOHCI19asyncActivityTickleEv
#__ZN11AppleFWOHCI19asyncStreamTransmitEmimmP18IOMemoryDescriptormiP22IOFWAsyncStreamCommand
#__ZN11AppleFWOHCI19flushWaitingPacketsEv
#__ZN11AppleFWOHCI19handlePhyRegRcvdIntEv
#__ZN11AppleFWOHCI19waitForPhyWriteDoneEv
#__ZN11AppleFWOHCI20addResetLinkListenerEP29AppleFWOHCI_CallbackContainer
#__ZN11AppleFWOHCI20handleSystemShutDownEm
#__ZN11AppleFWOHCI20setupPowerManagementEv
#__ZN11AppleFWOHCI21ClearDisabledPHYPortsEv
#__ZN11AppleFWOHCI21DetermineMaxPortSpeedEv
#__ZN11AppleFWOHCI21asyncReadQuadResponseEtiiim
#__ZN11AppleFWOHCI21disablePHYPortOnSleepEm
#__ZN11AppleFWOHCI21getBusCharacteristicsEv
#__ZN11AppleFWOHCI21handleAsyncCompletionEP11IOFWCommandi
#__ZN11AppleFWOHCI22destroyPowerManagementEv
#__ZN11AppleFWOHCI23handlePostedWriteErrIntEv
#__ZN11AppleFWOHCI23setNodeIDPhysicalFilterEtb
#__ZN11AppleFWOHCI24configureAsyncRobustnessEb
#__ZN11AppleFWOHCI24configureIsochRobustnessEb
#__ZN11AppleFWOHCI26asyncActivityTimerCallbackEP18IOTimerEventSource
#__ZN11AppleFWOHCI26filterPhysicalReadsAndIsocEP28IOFilterInterruptEventSource
#__ZN11AppleFWOHCI26platformDeviceFoundHandlerEP8OSObjectPvP9IOService
#__ZN11AppleFWOHCI27handleUnrecoverableErrorIntEv
#__ZN11AppleFWOHCI33setBackoffIsochRobustnessRequiredEP8OSObjectPvS2_S2_S2_
#__ZN11AppleFWOHCI4freeEv
#__ZN11AppleFWOHCI4initEP12OSDictionary
#__ZN11AppleFWOHCI4stopEP9IOService
#__ZN11AppleFWOHCI5startEP9IOService
#__ZN11AppleFWOHCI6reinitEv
#__ZN11AppleFWOHCI7cmpSwapEimm
#__ZN11AppleFWOHCI7getGUIDEv
#__ZN11AppleFWOHCI8finalizeEm
#__ZN11AppleFWOHCI8initLinkEb
#__ZN11AppleFWOHCI8resetBusEb
#__ZN11AppleFWOHCI8resetBusEbb
__ZN11AppleFWOHCI9MetaClassC1Ev
__ZN11AppleFWOHCI9MetaClassC2Ev
#__ZN11AppleFWOHCI9asyncLockEttmiiiP18IOMemoryDescriptormiP16IOFWAsyncCommand
#__ZN11AppleFWOHCI9asyncReadEttmiiiP16IOFWAsyncCommand
#__ZN11AppleFWOHCI9clockTickEP18IOTimerEventSource
#__ZN11AppleFWOHCI9getNodeIDEv
__ZN11AppleFWOHCI9metaClassE
#__ZN11AppleFWOHCI9resetLinkEv
#__ZN11AppleFWOHCI9updateROMEPK6OSData
__ZN11AppleFWOHCIC1EPK11OSMetaClass
__ZN11AppleFWOHCIC1Ev
__ZN11AppleFWOHCIC2EPK11OSMetaClass
__ZN11AppleFWOHCIC2Ev
__ZN11AppleFWOHCID0Ev
__ZN11AppleFWOHCID2Ev
__ZN13IOFWDCLFriend12addDCLLinkeeEP7IOFWDCLS1_
__ZN13IOFWDCLFriend17fixupDCLTimeStampEP11AppleFWOHCIm
__ZN13IOFWDCLFriend19allocDCLDescriptorsER22AppleFWOHCI_DCLProgramP7IOFWDCLjjPN14IOMemoryCursor15PhysicalSegmentEjRb
#__ZN14AppleFWOHCI_PM10gMetaClassE
#__ZN14AppleFWOHCI_PM10reinitLinkEv
#__ZN14AppleFWOHCI_PM10superClassE
#__ZN14AppleFWOHCI_PM12initWithLinkEP11AppleFWOHCI
#__ZN14AppleFWOHCI_PM13linkIsPoweredEv
#__ZN14AppleFWOHCI_PM16exitPowerSavingsEb
#__ZN14AppleFWOHCI_PM17setLinkPowerStateEm
#__ZN14AppleFWOHCI_PM20handleSystemShutDownEm
#__ZN14AppleFWOHCI_PM21filterLinkOnInterruptEi
#__ZN14AppleFWOHCI_PM22startPowerSavingsTimerEv
#__ZN14AppleFWOHCI_PM25shouldSkipInterruptFilterEv
#__ZN14AppleFWOHCI_PM4freeEv
#__ZN14AppleFWOHCI_PM8finalizeEv
#__ZN14AppleFWOHCI_PM8initLinkEv
#__ZN14AppleFWOHCI_PM9MetaClassC1Ev
#__ZN14AppleFWOHCI_PM9MetaClassC2Ev
#__ZN14AppleFWOHCI_PM9metaClassE
#__ZN14AppleFWOHCI_PMC1EPK11OSMetaClass
#__ZN14AppleFWOHCI_PMC2EPK11OSMetaClass
#__ZN14AppleFWOHCI_PMD0Ev
#__ZN14AppleFWOHCI_PMD2Ev
#__ZN18AppleFWOHCI_PM_PPC10gMetaClassE
#__ZN18AppleFWOHCI_PM_PPC10reinitLinkEv
#__ZN18AppleFWOHCI_PM_PPC10superClassE
#__ZN18AppleFWOHCI_PM_PPC12initWithLinkEP11AppleFWOHCI
#__ZN18AppleFWOHCI_PM_PPC13SetFireWirePDEb
#__ZN18AppleFWOHCI_PM_PPC13linkIsPoweredEv
#__ZN18AppleFWOHCI_PM_PPC14createWithLinkEP11AppleFWOHCI
#__ZN18AppleFWOHCI_PM_PPC16exitPowerSavingsEb
#__ZN18AppleFWOHCI_PM_PPC17setLinkPowerStateEm
#__ZN18AppleFWOHCI_PM_PPC19EnableFireWireClockEb
#__ZN18AppleFWOHCI_PM_PPC20handleSystemShutDownEm
#__ZN18AppleFWOHCI_PM_PPC20setupPhyPowerSavingsEP9IOService
#__ZN18AppleFWOHCI_PM_PPC20setupPowerManagementEv
#__ZN18AppleFWOHCI_PM_PPC21filterLinkOnInterruptEi
#__ZN18AppleFWOHCI_PM_PPC21handleLinkOnInterruptEi
#__ZN18AppleFWOHCI_PM_PPC21linkOnNubFoundHandlerEP8OSObjectPvP9IOService
#__ZN18AppleFWOHCI_PM_PPC22destroyPowerManagementEv
#__ZN18AppleFWOHCI_PM_PPC22startPowerSavingsTimerEv
#__ZN18AppleFWOHCI_PM_PPC23handlePowerSavingsTimerEP18IOTimerEventSource
#__ZN18AppleFWOHCI_PM_PPC25shouldSkipInterruptFilterEv
#__ZN18AppleFWOHCI_PM_PPC26setupPhyPowerSavingsStaticEP8OSObjectPvS2_S2_S2_
#__ZN18AppleFWOHCI_PM_PPC27handleLinkOnInterruptStaticEP8OSObjectP22IOInterruptEventSourcei
#__ZN18AppleFWOHCI_PM_PPC29handlePowerSavingsTimerStaticEP8OSObjectP18IOTimerEventSource
#__ZN18AppleFWOHCI_PM_PPC4freeEv
#__ZN18AppleFWOHCI_PM_PPC4wakeEv
#__ZN18AppleFWOHCI_PM_PPC5sleepEv
#__ZN18AppleFWOHCI_PM_PPC8finalizeEv
#__ZN18AppleFWOHCI_PM_PPC8initLinkEv
#__ZN18AppleFWOHCI_PM_PPC9MetaClassC1Ev
#__ZN18AppleFWOHCI_PM_PPC9MetaClassC2Ev
#__ZN18AppleFWOHCI_PM_PPC9metaClassE
#__ZN18AppleFWOHCI_PM_PPCC1EPK11OSMetaClass
#__ZN18AppleFWOHCI_PM_PPCC1Ev
#__ZN18AppleFWOHCI_PM_PPCC2EPK11OSMetaClass
#__ZN18AppleFWOHCI_PM_PPCC2Ev
#__ZN18AppleFWOHCI_PM_PPCD0Ev
#__ZN18AppleFWOHCI_PM_PPCD2Ev
#__ZN18AppleFWOHCI_PM_x8610gMetaClassE
#__ZN18AppleFWOHCI_PM_x8610reinitLinkEv
#__ZN18AppleFWOHCI_PM_x8610superClassE
#__ZN18AppleFWOHCI_PM_x8612initWithLinkEP11AppleFWOHCI
#__ZN18AppleFWOHCI_PM_x8613linkIsPoweredEv
#__ZN18AppleFWOHCI_PM_x8614createWithLinkEP11AppleFWOHCI
#__ZN18AppleFWOHCI_PM_x8615powerDownPhase1Ev
#__ZN18AppleFWOHCI_PM_x8615powerDownPhase2Ev
#__ZN18AppleFWOHCI_PM_x8616exitPowerSavingsEb
#__ZN18AppleFWOHCI_PM_x8617setLinkPowerStateEm
#__ZN18AppleFWOHCI_PM_x8620handleSystemShutDownEm
#__ZN18AppleFWOHCI_PM_x8620setupPowerManagementEv
#__ZN18AppleFWOHCI_PM_x8621filterLinkOnInterruptEi
#__ZN18AppleFWOHCI_PM_x8621handleLinkOnInterruptEi
#__ZN18AppleFWOHCI_PM_x8622destroyPowerManagementEv
#__ZN18AppleFWOHCI_PM_x8622startPowerSavingsTimerEv
#__ZN18AppleFWOHCI_PM_x8623cancelPowerSavingsTimerEv
#__ZN18AppleFWOHCI_PM_x8623handlePowerSavingsTimerEP18IOTimerEventSource
#__ZN18AppleFWOHCI_PM_x8625shouldSkipInterruptFilterEv
#__ZN18AppleFWOHCI_PM_x8627handleLinkOnInterruptStaticEP8OSObjectP22IOInterruptEventSourcei
#__ZN18AppleFWOHCI_PM_x8629handlePowerSavingsTimerStaticEP8OSObjectP18IOTimerEventSource
#__ZN18AppleFWOHCI_PM_x864dozeEv
#__ZN18AppleFWOHCI_PM_x864freeEv
#__ZN18AppleFWOHCI_PM_x864wakeEv
#__ZN18AppleFWOHCI_PM_x865sleepEv
#__ZN18AppleFWOHCI_PM_x868finalizeEv
#__ZN18AppleFWOHCI_PM_x868initLinkEv
#__ZN18AppleFWOHCI_PM_x869MetaClassC1Ev
#__ZN18AppleFWOHCI_PM_x869MetaClassC2Ev
#__ZN18AppleFWOHCI_PM_x869metaClassE
#__ZN18AppleFWOHCI_PM_x86C1EPK11OSMetaClass
#__ZN18AppleFWOHCI_PM_x86C1Ev
#__ZN18AppleFWOHCI_PM_x86C2EPK11OSMetaClass
#__ZN18AppleFWOHCI_PM_x86C2Ev
#__ZN18AppleFWOHCI_PM_x86D0Ev
#__ZN18AppleFWOHCI_PM_x86D2Ev
#__ZN19AppleFWOHCI_DCLPool10gMetaClassE
#__ZN19AppleFWOHCI_DCLPool10superClassE
#__ZN19AppleFWOHCI_DCLPool12allocSendDCLEv
#__ZN19AppleFWOHCI_DCLPool13appendSendDCLEP5OSSetmP14IOVirtualRange
#__ZN19AppleFWOHCI_DCLPool15allocReceiveDCLEv
#__ZN19AppleFWOHCI_DCLPool16appendReceiveDCLEP5OSSethmP14IOVirtualRange
#__ZN19AppleFWOHCI_DCLPool17allocSkipCycleDCLEv
#__ZN19AppleFWOHCI_DCLPool18appendSkipCycleDCLEv
#__ZN19AppleFWOHCI_DCLPool9MetaClassC1Ev
#__ZN19AppleFWOHCI_DCLPool9MetaClassC2Ev
#__ZN19AppleFWOHCI_DCLPool9metaClassE
#__ZN19AppleFWOHCI_DCLPoolC1EPK11OSMetaClass
#__ZN19AppleFWOHCI_DCLPoolC1Ev
#__ZN19AppleFWOHCI_DCLPoolC2EPK11OSMetaClass
#__ZN19AppleFWOHCI_DCLPoolC2Ev
#__ZN19AppleFWOHCI_DCLPoolD0Ev
#__ZN19AppleFWOHCI_DCLPoolD2Ev
#__ZN19AppleFWOHCI_SendDCL10gMetaClassE
#__ZN19AppleFWOHCI_SendDCL10superClassE
#__ZN19AppleFWOHCI_SendDCL14initWithParamsEP5OSSetjP14IOVirtualRangehh
#__ZN19AppleFWOHCI_SendDCL17checkForInterruptEv
#__ZN19AppleFWOHCI_SendDCL4linkEv
#__ZN19AppleFWOHCI_SendDCL6updateEv
#__ZN19AppleFWOHCI_SendDCL7compileER12IODCLProgramRb
#__ZN19AppleFWOHCI_SendDCL8finalizeER12IODCLProgram
#__ZN19AppleFWOHCI_SendDCL9MetaClassC1Ev
#__ZN19AppleFWOHCI_SendDCL9MetaClassC2Ev
#__ZN19AppleFWOHCI_SendDCL9interruptERbRP7IOFWDCL
#__ZN19AppleFWOHCI_SendDCL9metaClassE
#__ZN19AppleFWOHCI_SendDCLC1EPK11OSMetaClass
#__ZN19AppleFWOHCI_SendDCLC1Ev
#__ZN19AppleFWOHCI_SendDCLC2EPK11OSMetaClass
#__ZN19AppleFWOHCI_SendDCLC2Ev
#__ZN19AppleFWOHCI_SendDCLD0Ev
#__ZN19AppleFWOHCI_SendDCLD2Ev
#__ZN20AppleFWOHCI_IRMSpace10gMetaClassE
#__ZN20AppleFWOHCI_IRMSpace10superClassE
#__ZN20AppleFWOHCI_IRMSpace14createWithLinkEP11AppleFWOHCI
#__ZN20AppleFWOHCI_IRMSpace17resetIRMRegistersEv
#__ZN20AppleFWOHCI_IRMSpace4freeEv
#__ZN20AppleFWOHCI_IRMSpace4initEP11AppleFWOHCIP20IOFireWireController
#__ZN20AppleFWOHCI_IRMSpace6doLockEtR9IOFWSpeed15FWAddressStructmPKmRmPmmPv
#__ZN20AppleFWOHCI_IRMSpace6doReadEtR9IOFWSpeed15FWAddressStructmPP18IOMemoryDescriptorPmPv
#__ZN20AppleFWOHCI_IRMSpace7doWriteEtR9IOFWSpeed15FWAddressStructmPKvPv
#__ZN20AppleFWOHCI_IRMSpace9MetaClassC1Ev
#__ZN20AppleFWOHCI_IRMSpace9MetaClassC2Ev
#__ZN20AppleFWOHCI_IRMSpace9metaClassE
#__ZN20AppleFWOHCI_IRMSpaceC1EPK11OSMetaClass
#__ZN20AppleFWOHCI_IRMSpaceC1Ev
#__ZN20AppleFWOHCI_IRMSpaceC2EPK11OSMetaClass
#__ZN20AppleFWOHCI_IRMSpaceC2Ev
#__ZN20AppleFWOHCI_IRMSpaceD0Ev
#__ZN20AppleFWOHCI_IRMSpaceD2Ev
#__ZN22AppleFWOHCI_DCLProgram10allocateHWE9IOFWSpeedm
#__ZN22AppleFWOHCI_DCLProgram10gMetaClassE
#__ZN22AppleFWOHCI_DCLProgram10superClassE
#__ZN22AppleFWOHCI_DCLProgram11contextDiedEv
#__ZN22AppleFWOHCI_DCLProgram15handleInterruptEv
#__ZN22AppleFWOHCI_DCLProgram16setForceStopProcEPFiPvP16IOFWIsochChannelmES0_S2_
#__ZN22AppleFWOHCI_DCLProgram17resetLinkCallbackEv
#__ZN22AppleFWOHCI_DCLProgram17synchronizeWithIOEv
#__ZN22AppleFWOHCI_DCLProgram17virtualToPhysicalEP14IOVirtualRangejPN14IOMemoryCursor15PhysicalSegmentERjj
#__ZN22AppleFWOHCI_DCLProgram20setDCLNeedsInterruptEP7IOFWDCLb
#__ZN22AppleFWOHCI_DCLProgram22translateLegacyProgramEP16DCLCommandStruct
#__ZN22AppleFWOHCI_DCLProgram4freeEv
#__ZN22AppleFWOHCI_DCLProgram4initER11AppleFWOHCIbP16DCLCommandStructPN13IOFireWireBus11DCLTaskInfoEmmm
#__ZN22AppleFWOHCI_DCLProgram4stopEv
#__ZN22AppleFWOHCI_DCLProgram5sleepEv
#__ZN22AppleFWOHCI_DCLProgram5startEv
#__ZN22AppleFWOHCI_DCLProgram6notifyE23IOFWDCLNotificationTypePP16DCLCommandStructm
#__ZN22AppleFWOHCI_DCLProgram7compileE9IOFWSpeedm
#__ZN22AppleFWOHCI_DCLProgram8openGateEv
#__ZN22AppleFWOHCI_DCLProgram9MetaClassC1Ev
#__ZN22AppleFWOHCI_DCLProgram9MetaClassC2Ev
#__ZN22AppleFWOHCI_DCLProgram9closeGateEv
#__ZN22AppleFWOHCI_DCLProgram9metaClassE
#__ZN22AppleFWOHCI_DCLProgram9releaseHWEv
#__ZN22AppleFWOHCI_DCLProgramC1EPK11OSMetaClass
#__ZN22AppleFWOHCI_DCLProgramC1Ev
#__ZN22AppleFWOHCI_DCLProgramC2EPK11OSMetaClass
#__ZN22AppleFWOHCI_DCLProgramC2Ev
#__ZN22AppleFWOHCI_DCLProgramD0Ev
#__ZN22AppleFWOHCI_DCLProgramD2Ev
#__ZN22AppleFWOHCI_DMAManager10gMetaClassE
#__ZN22AppleFWOHCI_DMAManager10superClassE
#__ZN22AppleFWOHCI_DMAManager11filterIsochEm
#__ZN22AppleFWOHCI_DMAManager13addDCLProgramER22AppleFWOHCI_DCLProgram9IOFWSpeedm
#__ZN22AppleFWOHCI_DMAManager16removeDCLProgramER22AppleFWOHCI_DCLProgram
#__ZN22AppleFWOHCI_DMAManager20checkForDeadContextsEv
#__ZN22AppleFWOHCI_DMAManager22allocateReceiveContextEm22IOFWIsochResourceFlags
#__ZN22AppleFWOHCI_DMAManager23allocateTransmitContextE9IOFWSpeed
#__ZN22AppleFWOHCI_DMAManager4freeEv
#__ZN22AppleFWOHCI_DMAManager4initER11AppleFWOHCI
#__ZN22AppleFWOHCI_DMAManager4wakeEv
#__ZN22AppleFWOHCI_DMAManager5pauseEv
#__ZN22AppleFWOHCI_DMAManager5sleepEv
#__ZN22AppleFWOHCI_DMAManager6activeEv
#__ZN22AppleFWOHCI_DMAManager6resumeEv
#__ZN22AppleFWOHCI_DMAManager7Context17restoreSavedStateEv
#__ZN22AppleFWOHCI_DMAManager7Context4stopEv
#__ZN22AppleFWOHCI_DMAManager7Context5startEmhmmm
#__ZN22AppleFWOHCI_DMAManager7Context5startEv
#__ZN22AppleFWOHCI_DMAManager7Context6resumeEv
#__ZN22AppleFWOHCI_DMAManager7Context9checkDiedEv
#__ZN22AppleFWOHCI_DMAManager7Context9saveStateEv
#__ZN22AppleFWOHCI_DMAManager9MetaClassC1Ev
#__ZN22AppleFWOHCI_DMAManager9MetaClassC2Ev
#__ZN22AppleFWOHCI_DMAManager9metaClassE
#__ZN22AppleFWOHCI_DMAManagerC1EPK11OSMetaClass
#__ZN22AppleFWOHCI_DMAManagerC1Ev
#__ZN22AppleFWOHCI_DMAManagerC2EPK11OSMetaClass
#__ZN22AppleFWOHCI_DMAManagerC2Ev
#__ZN22AppleFWOHCI_DMAManagerD0Ev
#__ZN22AppleFWOHCI_DMAManagerD2Ev
#__ZN22AppleFWOHCI_ReceiveDCL10gMetaClassE
#__ZN22AppleFWOHCI_ReceiveDCL10superClassE
#__ZN22AppleFWOHCI_ReceiveDCL14initWithParamsEP5OSSethjP14IOVirtualRange
#__ZN22AppleFWOHCI_ReceiveDCL17checkForInterruptEv
#__ZN22AppleFWOHCI_ReceiveDCL4freeEv
#__ZN22AppleFWOHCI_ReceiveDCL4linkEv
#__ZN22AppleFWOHCI_ReceiveDCL6updateEv
#__ZN22AppleFWOHCI_ReceiveDCL7compileER12IODCLProgramRb
#__ZN22AppleFWOHCI_ReceiveDCL8finalizeER12IODCLProgram
#__ZN22AppleFWOHCI_ReceiveDCL9MetaClassC1Ev
#__ZN22AppleFWOHCI_ReceiveDCL9MetaClassC2Ev
#__ZN22AppleFWOHCI_ReceiveDCL9interruptERbRP7IOFWDCL
#__ZN22AppleFWOHCI_ReceiveDCL9metaClassE
#__ZN22AppleFWOHCI_ReceiveDCLC1EPK11OSMetaClass
#__ZN22AppleFWOHCI_ReceiveDCLC1Ev
#__ZN22AppleFWOHCI_ReceiveDCLC2EPK11OSMetaClass
#__ZN22AppleFWOHCI_ReceiveDCLC2Ev
#__ZN22AppleFWOHCI_ReceiveDCLD0Ev
#__ZN22AppleFWOHCI_ReceiveDCLD2Ev
#__ZN24AppleFWOHCI_AsyncReceive10gMetaClassE
#__ZN24AppleFWOHCI_AsyncReceive10getQuadletEmPm
#__ZN24AppleFWOHCI_AsyncReceive10superClassE
#__ZN24AppleFWOHCI_AsyncReceive10waitForDMAEv
#__ZN24AppleFWOHCI_AsyncReceive12initWithLinkEP11AppleFWOHCIP10DMAContextmm
#__ZN24AppleFWOHCI_AsyncReceive14updateResCountEm
#__ZN24AppleFWOHCI_AsyncReceive19appendElementToTailEPNS_10ARxElementE
#__ZN24AppleFWOHCI_AsyncReceive21removeElementFromHeadEv
#__ZN24AppleFWOHCI_AsyncReceive24createAllCommandElementsEv
#__ZN24AppleFWOHCI_AsyncReceive25destroyAllCommandElementsEv
#__ZN24AppleFWOHCI_AsyncReceive4freeEv
#__ZN24AppleFWOHCI_AsyncReceive7stopDMAEv
#__ZN24AppleFWOHCI_AsyncReceive8resetDMAEv
#__ZN24AppleFWOHCI_AsyncReceive8startDMAEv
#__ZN24AppleFWOHCI_AsyncReceive9MetaClassC1Ev
#__ZN24AppleFWOHCI_AsyncReceive9MetaClassC2Ev
#__ZN24AppleFWOHCI_AsyncReceive9getPacketEmPPm
#__ZN24AppleFWOHCI_AsyncReceive9metaClassE
#__ZN24AppleFWOHCI_AsyncReceiveC1EPK11OSMetaClass
#__ZN24AppleFWOHCI_AsyncReceiveC2EPK11OSMetaClass
#__ZN24AppleFWOHCI_AsyncReceiveD0Ev
#__ZN24AppleFWOHCI_AsyncReceiveD2Ev
#__ZN24AppleFWOHCI_DCLProgram_U10gMetaClassE
#__ZN24AppleFWOHCI_DCLProgram_U10nextContigEmRjRm
#__ZN24AppleFWOHCI_DCLProgram_U10superClassE
#__ZN24AppleFWOHCI_DCLProgram_U17nextSpecialBufferEmRjRm
#__ZN24AppleFWOHCI_DCLProgram_U4freeEv
#__ZN24AppleFWOHCI_DCLProgram_U7compileE9IOFWSpeedm
#__ZN24AppleFWOHCI_DCLProgram_U9MetaClassC1Ev
#__ZN24AppleFWOHCI_DCLProgram_U9MetaClassC2Ev
#__ZN24AppleFWOHCI_DCLProgram_U9metaClassE
#__ZN24AppleFWOHCI_DCLProgram_UC1EPK11OSMetaClass
#__ZN24AppleFWOHCI_DCLProgram_UC1Ev
#__ZN24AppleFWOHCI_DCLProgram_UC2EPK11OSMetaClass
#__ZN24AppleFWOHCI_DCLProgram_UC2Ev
#__ZN24AppleFWOHCI_DCLProgram_UD0Ev
#__ZN24AppleFWOHCI_DCLProgram_UD2Ev
#__ZN24AppleFWOHCI_ReceiveDCL_U10gMetaClassE
#__ZN24AppleFWOHCI_ReceiveDCL_U10superClassE
#__ZN24AppleFWOHCI_ReceiveDCL_U11countRangesEv
#__ZN24AppleFWOHCI_ReceiveDCL_U14initWithParamsEP5OSSethjP14IOVirtualRange
#__ZN24AppleFWOHCI_ReceiveDCL_U24specialBufferBytesNeededER22AppleFWOHCI_DCLProgramRm
#__ZN24AppleFWOHCI_ReceiveDCL_U4freeEv
#__ZN24AppleFWOHCI_ReceiveDCL_U6updateEv
#__ZN24AppleFWOHCI_ReceiveDCL_U7compileER12IODCLProgramRb
#__ZN24AppleFWOHCI_ReceiveDCL_U9MetaClassC1Ev
#__ZN24AppleFWOHCI_ReceiveDCL_U9MetaClassC2Ev
#__ZN24AppleFWOHCI_ReceiveDCL_U9metaClassE
#__ZN24AppleFWOHCI_ReceiveDCL_UC1EPK11OSMetaClass
#__ZN24AppleFWOHCI_ReceiveDCL_UC1Ev
#__ZN24AppleFWOHCI_ReceiveDCL_UC2EPK11OSMetaClass
#__ZN24AppleFWOHCI_ReceiveDCL_UC2Ev
#__ZN24AppleFWOHCI_ReceiveDCL_UD0Ev
#__ZN24AppleFWOHCI_ReceiveDCL_UD2Ev
#__ZN24AppleFWOHCI_SkipCycleDCL10gMetaClassE
#__ZN24AppleFWOHCI_SkipCycleDCL10superClassE
#__ZN24AppleFWOHCI_SkipCycleDCL17checkForInterruptEv
#__ZN24AppleFWOHCI_SkipCycleDCL4initEv
#__ZN24AppleFWOHCI_SkipCycleDCL4linkEv
#__ZN24AppleFWOHCI_SkipCycleDCL6updateEv
#__ZN24AppleFWOHCI_SkipCycleDCL7compileER12IODCLProgramRb
#__ZN24AppleFWOHCI_SkipCycleDCL8finalizeER12IODCLProgram
#__ZN24AppleFWOHCI_SkipCycleDCL9MetaClassC1Ev
#__ZN24AppleFWOHCI_SkipCycleDCL9MetaClassC2Ev
#__ZN24AppleFWOHCI_SkipCycleDCL9interruptERbRP7IOFWDCL
#__ZN24AppleFWOHCI_SkipCycleDCL9metaClassE
#__ZN24AppleFWOHCI_SkipCycleDCLC1EPK11OSMetaClass
#__ZN24AppleFWOHCI_SkipCycleDCLC1Ev
#__ZN24AppleFWOHCI_SkipCycleDCLC2EPK11OSMetaClass
#__ZN24AppleFWOHCI_SkipCycleDCLC2Ev
#__ZN24AppleFWOHCI_SkipCycleDCLD0Ev
#__ZN24AppleFWOHCI_SkipCycleDCLD2Ev
#__ZN25AppleFWOHCI_AsyncTransmit10gMetaClassE
#__ZN25AppleFWOHCI_AsyncTransmit10superClassE
#__ZN25AppleFWOHCI_AsyncTransmit10waitForDMAEv
#__ZN25AppleFWOHCI_AsyncTransmit12initWithLinkEP11AppleFWOHCIP10DMAContextm
#__ZN25AppleFWOHCI_AsyncTransmit21executeCommandElementEPNS_10ATxElementE
#__ZN25AppleFWOHCI_AsyncTransmit22allocateCommandElementEv
#__ZN25AppleFWOHCI_AsyncTransmit22handleCompletedElementEPNS_10ATxElementEm
#__ZN25AppleFWOHCI_AsyncTransmit23addElementToPendingListEPNS_10ATxElementE
#__ZN25AppleFWOHCI_AsyncTransmit24createAllCommandElementsEv
#__ZN25AppleFWOHCI_AsyncTransmit24deallocateCommandElementEPNS_10ATxElementE
#__ZN25AppleFWOHCI_AsyncTransmit25checkForCompletedElementsEv
#__ZN25AppleFWOHCI_AsyncTransmit25destroyAllCommandElementsEv
#__ZN25AppleFWOHCI_AsyncTransmit28removeElementFromPendingListEPNS_10ATxElementE
#__ZN25AppleFWOHCI_AsyncTransmit4freeEv
#__ZN25AppleFWOHCI_AsyncTransmit7stopDMAEv
#__ZN25AppleFWOHCI_AsyncTransmit8resetDMAEv
#__ZN25AppleFWOHCI_AsyncTransmit9MetaClassC1Ev
#__ZN25AppleFWOHCI_AsyncTransmit9MetaClassC2Ev
#__ZN25AppleFWOHCI_AsyncTransmit9metaClassE
#__ZN25AppleFWOHCI_AsyncTransmitC1EPK11OSMetaClass
#__ZN25AppleFWOHCI_AsyncTransmitC2EPK11OSMetaClass
#__ZN25AppleFWOHCI_AsyncTransmitD0Ev
#__ZN25AppleFWOHCI_AsyncTransmitD2Ev
#__ZN26AppleFWOHCI_DescriptorPool10gMetaClassE
#__ZN26AppleFWOHCI_DescriptorPool10superClassE
#__ZN26AppleFWOHCI_DescriptorPool15allocDescriptorEPm
#__ZN26AppleFWOHCI_DescriptorPool17lookMemDescriptorEP24IOBufferMemoryDescriptorRNS_14DescriptorInfoEjPm
#__ZN26AppleFWOHCI_DescriptorPool19freeDescriptorBlockEP13DMADescriptorj
#__ZN26AppleFWOHCI_DescriptorPool20allocDescriptorBlockEjPm
#__ZN26AppleFWOHCI_DescriptorPool21resizeDescriptorBlockEP13DMADescriptorjj
#__ZN26AppleFWOHCI_DescriptorPool4freeEv
#__ZN26AppleFWOHCI_DescriptorPool4initEv
#__ZN26AppleFWOHCI_DescriptorPool6createEv
#__ZN26AppleFWOHCI_DescriptorPool6expandERP24IOBufferMemoryDescriptor
#__ZN26AppleFWOHCI_DescriptorPool9MetaClassC1Ev
#__ZN26AppleFWOHCI_DescriptorPool9MetaClassC2Ev
#__ZN26AppleFWOHCI_DescriptorPool9metaClassE
#__ZN26AppleFWOHCI_DescriptorPoolC1EPK11OSMetaClass
#__ZN26AppleFWOHCI_DescriptorPoolC1Ev
#__ZN26AppleFWOHCI_DescriptorPoolC2EPK11OSMetaClass
#__ZN26AppleFWOHCI_DescriptorPoolC2Ev
#__ZN26AppleFWOHCI_DescriptorPoolD0Ev
#__ZN26AppleFWOHCI_DescriptorPoolD2Ev
#__ZN29AppleFWOHCI_CallbackContainer10gMetaClassE
#__ZN29AppleFWOHCI_CallbackContainer10superClassE
#__ZN29AppleFWOHCI_CallbackContainer10withActionEP8OSObjectPFPvS1_S2_S2_S2_S2_E
#__ZN29AppleFWOHCI_CallbackContainer9MetaClassC1Ev
#__ZN29AppleFWOHCI_CallbackContainer9MetaClassC2Ev
#__ZN29AppleFWOHCI_CallbackContainer9metaClassE
#__ZN29AppleFWOHCI_CallbackContainerC1EPK11OSMetaClass
#__ZN29AppleFWOHCI_CallbackContainerC1Ev
#__ZN29AppleFWOHCI_CallbackContainerC2EPK11OSMetaClass
#__ZN29AppleFWOHCI_CallbackContainerC2Ev
#__ZN29AppleFWOHCI_CallbackContainerD0Ev
#__ZN29AppleFWOHCI_CallbackContainerD2Ev
#__ZN31AppleFWOHCI_AsyncReceiveRequest10gMetaClassE
#__ZN31AppleFWOHCI_AsyncReceiveRequest10superClassE
#__ZN31AppleFWOHCI_AsyncReceiveRequest12initWithLinkEP11AppleFWOHCI
#__ZN31AppleFWOHCI_AsyncReceiveRequest14createWithLinkEP11AppleFWOHCI
#__ZN31AppleFWOHCI_AsyncReceiveRequest23checkForReceivedPacketsEv
#__ZN31AppleFWOHCI_AsyncReceiveRequest26filterPhysicalReadRequestsEv
#__ZN31AppleFWOHCI_AsyncReceiveRequest4freeEv
#__ZN31AppleFWOHCI_AsyncReceiveRequest9MetaClassC1Ev
#__ZN31AppleFWOHCI_AsyncReceiveRequest9MetaClassC2Ev
#__ZN31AppleFWOHCI_AsyncReceiveRequest9metaClassE
#__ZN31AppleFWOHCI_AsyncReceiveRequestC1EPK11OSMetaClass
#__ZN31AppleFWOHCI_AsyncReceiveRequestC1Ev
#__ZN31AppleFWOHCI_AsyncReceiveRequestC2EPK11OSMetaClass
#__ZN31AppleFWOHCI_AsyncReceiveRequestC2Ev
#__ZN31AppleFWOHCI_AsyncReceiveRequestD0Ev
#__ZN31AppleFWOHCI_AsyncReceiveRequestD2Ev
#__ZN31AppleFWOHCI_CallbackEventSource10gMetaClassE
#__ZN31AppleFWOHCI_CallbackEventSource10superClassE
#__ZN31AppleFWOHCI_CallbackEventSource12checkForWorkEv
#__ZN31AppleFWOHCI_CallbackEventSource16scheduleCallbackEv
#__ZN31AppleFWOHCI_CallbackEventSource17synchronizeWithIOEv
#__ZN31AppleFWOHCI_CallbackEventSource4initEP8OSObjectPFvS1_E
#__ZN31AppleFWOHCI_CallbackEventSource6createEP8OSObjectPFvS1_E
#__ZN31AppleFWOHCI_CallbackEventSource9MetaClassC1Ev
#__ZN31AppleFWOHCI_CallbackEventSource9MetaClassC2Ev
#__ZN31AppleFWOHCI_CallbackEventSource9metaClassE
#__ZN31AppleFWOHCI_CallbackEventSourceC1EPK11OSMetaClass
#__ZN31AppleFWOHCI_CallbackEventSourceC1Ev
#__ZN31AppleFWOHCI_CallbackEventSourceC2EPK11OSMetaClass
#__ZN31AppleFWOHCI_CallbackEventSourceC2Ev
#__ZN31AppleFWOHCI_CallbackEventSourceD0Ev
#__ZN31AppleFWOHCI_CallbackEventSourceD2Ev
#__ZN32AppleFWOHCI_AsyncReceiveResponse10gMetaClassE
#__ZN32AppleFWOHCI_AsyncReceiveResponse10superClassE
#__ZN32AppleFWOHCI_AsyncReceiveResponse12initWithLinkEP11AppleFWOHCI
#__ZN32AppleFWOHCI_AsyncReceiveResponse14createWithLinkEP11AppleFWOHCI
#__ZN32AppleFWOHCI_AsyncReceiveResponse16isDMAOutOfBoundsEv
#__ZN32AppleFWOHCI_AsyncReceiveResponse23checkForReceivedPacketsEv
#__ZN32AppleFWOHCI_AsyncReceiveResponse4freeEv
#__ZN32AppleFWOHCI_AsyncReceiveResponse9MetaClassC1Ev
#__ZN32AppleFWOHCI_AsyncReceiveResponse9MetaClassC2Ev
#__ZN32AppleFWOHCI_AsyncReceiveResponse9metaClassE
#__ZN32AppleFWOHCI_AsyncReceiveResponseC1EPK11OSMetaClass
#__ZN32AppleFWOHCI_AsyncReceiveResponseC1Ev
#__ZN32AppleFWOHCI_AsyncReceiveResponseC2EPK11OSMetaClass
#__ZN32AppleFWOHCI_AsyncReceiveResponseC2Ev
#__ZN32AppleFWOHCI_AsyncReceiveResponseD0Ev
#__ZN32AppleFWOHCI_AsyncReceiveResponseD2Ev
#__ZN32AppleFWOHCI_AsyncTransmitRequest10asyncWriteEttmiiP18IOMemoryDescriptormiP16IOFWAsyncCommand14IOFWWriteFlags
#__ZN32AppleFWOHCI_AsyncTransmitRequest10gMetaClassE
#__ZN32AppleFWOHCI_AsyncTransmitRequest10superClassE
#__ZN32AppleFWOHCI_AsyncTransmitRequest12initWithLinkEP11AppleFWOHCI
#__ZN32AppleFWOHCI_AsyncTransmitRequest13sendPHYPacketEm
#__ZN32AppleFWOHCI_AsyncTransmitRequest14createWithLinkEP11AppleFWOHCI
#__ZN32AppleFWOHCI_AsyncTransmitRequest19asyncStreamTransmitEmimmP18IOMemoryDescriptormiP22IOFWAsyncStreamCommand
#__ZN32AppleFWOHCI_AsyncTransmitRequest19doAsyncWriteRequestEttmiimmmP16IOFWAsyncCommandim14IOFWWriteFlags
#__ZN32AppleFWOHCI_AsyncTransmitRequest20doAsyncStreamRequestEmimmmmmP22IOFWAsyncStreamCommand
#__ZN32AppleFWOHCI_AsyncTransmitRequest22handleCompletedCommandEP11IOFWCommandi
#__ZN32AppleFWOHCI_AsyncTransmitRequest22handleCompletedElementEPN25AppleFWOHCI_AsyncTransmit10ATxElementEm
#__ZN32AppleFWOHCI_AsyncTransmitRequest27doAsyncStreamRequestElegantEmimmmmmP22IOFWAsyncStreamCommand
#__ZN32AppleFWOHCI_AsyncTransmitRequest4freeEv
#__ZN32AppleFWOHCI_AsyncTransmitRequest5CRC32EPmm
#__ZN32AppleFWOHCI_AsyncTransmitRequest9MetaClassC1Ev
#__ZN32AppleFWOHCI_AsyncTransmitRequest9MetaClassC2Ev
#__ZN32AppleFWOHCI_AsyncTransmitRequest9asyncLockEttmiiiP18IOMemoryDescriptormiP16IOFWAsyncCommand
#__ZN32AppleFWOHCI_AsyncTransmitRequest9asyncReadEttmiiiP16IOFWAsyncCommand
#__ZN32AppleFWOHCI_AsyncTransmitRequest9metaClassE
#__ZN32AppleFWOHCI_AsyncTransmitRequestC1EPK11OSMetaClass
#__ZN32AppleFWOHCI_AsyncTransmitRequestC1Ev
#__ZN32AppleFWOHCI_AsyncTransmitRequestC2EPK11OSMetaClass
#__ZN32AppleFWOHCI_AsyncTransmitRequestC2Ev
#__ZN32AppleFWOHCI_AsyncTransmitRequestD0Ev
#__ZN32AppleFWOHCI_AsyncTransmitRequestD2Ev
#__ZN33AppleFWOHCI_AsyncTransmitResponse10gMetaClassE
#__ZN33AppleFWOHCI_AsyncTransmitResponse10superClassE
#__ZN33AppleFWOHCI_AsyncTransmitResponse12initWithLinkEP11AppleFWOHCI
#__ZN33AppleFWOHCI_AsyncTransmitResponse14createWithLinkEP11AppleFWOHCI
#__ZN33AppleFWOHCI_AsyncTransmitResponse17asyncLockResponseEtiiiiPvi
#__ZN33AppleFWOHCI_AsyncTransmitResponse17asyncReadResponseEtiiiP18IOMemoryDescriptormi
#__ZN33AppleFWOHCI_AsyncTransmitResponse18asyncWriteResponseEtiiit
#__ZN33AppleFWOHCI_AsyncTransmitResponse21asyncReadQuadResponseEtiiim
#__ZN33AppleFWOHCI_AsyncTransmitResponse25asyncReadResponsePhysicalEtiiimi
#__ZN33AppleFWOHCI_AsyncTransmitResponse4freeEv
#__ZN33AppleFWOHCI_AsyncTransmitResponse9MetaClassC1Ev
#__ZN33AppleFWOHCI_AsyncTransmitResponse9MetaClassC2Ev
#__ZN33AppleFWOHCI_AsyncTransmitResponse9metaClassE
#__ZN33AppleFWOHCI_AsyncTransmitResponseC1EPK11OSMetaClass
#__ZN33AppleFWOHCI_AsyncTransmitResponseC1Ev
#__ZN33AppleFWOHCI_AsyncTransmitResponseC2EPK11OSMetaClass
#__ZN33AppleFWOHCI_AsyncTransmitResponseC2Ev
#__ZN33AppleFWOHCI_AsyncTransmitResponseD0Ev
#__ZN33AppleFWOHCI_AsyncTransmitResponseD2Ev
__ZNK11AppleFWOHCI12getMetaClassEv
__ZNK11AppleFWOHCI9MetaClass5allocEv
#__ZNK14AppleFWOHCI_PM12getMetaClassEv
#__ZNK14AppleFWOHCI_PM9MetaClass5allocEv
#__ZNK18AppleFWOHCI_PM_PPC12getMetaClassEv
#__ZNK18AppleFWOHCI_PM_PPC9MetaClass5allocEv
#__ZNK18AppleFWOHCI_PM_x8612getMetaClassEv
#__ZNK18AppleFWOHCI_PM_x869MetaClass5allocEv
#__ZNK19AppleFWOHCI_DCLPool12getMetaClassEv
#__ZNK19AppleFWOHCI_DCLPool9MetaClass5allocEv
#__ZNK19AppleFWOHCI_SendDCL12getMetaClassEv
#__ZNK19AppleFWOHCI_SendDCL9MetaClass5allocEv
#__ZNK20AppleFWOHCI_IRMSpace12getMetaClassEv
#__ZNK20AppleFWOHCI_IRMSpace9MetaClass5allocEv
#__ZNK22AppleFWOHCI_DCLProgram12getMetaClassEv
#__ZNK22AppleFWOHCI_DCLProgram9MetaClass5allocEv
#__ZNK22AppleFWOHCI_DMAManager12getMetaClassEv
#__ZNK22AppleFWOHCI_DMAManager9MetaClass5allocEv
#__ZNK22AppleFWOHCI_ReceiveDCL12getMetaClassEv
#__ZNK22AppleFWOHCI_ReceiveDCL9MetaClass5allocEv
#__ZNK24AppleFWOHCI_AsyncReceive12getMetaClassEv
#__ZNK24AppleFWOHCI_AsyncReceive9MetaClass5allocEv
#__ZNK24AppleFWOHCI_DCLProgram_U12getMetaClassEv
#__ZNK24AppleFWOHCI_DCLProgram_U9MetaClass5allocEv
#__ZNK24AppleFWOHCI_ReceiveDCL_U12getMetaClassEv
#__ZNK24AppleFWOHCI_ReceiveDCL_U9MetaClass5allocEv
#__ZNK24AppleFWOHCI_ReceiveDCL_U9getRangesEmP14IOVirtualRange
#__ZNK24AppleFWOHCI_SkipCycleDCL12getMetaClassEv
#__ZNK24AppleFWOHCI_SkipCycleDCL9MetaClass5allocEv
#__ZNK25AppleFWOHCI_AsyncTransmit12getMetaClassEv
#__ZNK25AppleFWOHCI_AsyncTransmit9MetaClass5allocEv
#__ZNK26AppleFWOHCI_DescriptorPool12getMetaClassEv
#__ZNK26AppleFWOHCI_DescriptorPool9MetaClass5allocEv
#__ZNK29AppleFWOHCI_CallbackContainer12getMetaClassEv
#__ZNK29AppleFWOHCI_CallbackContainer9MetaClass5allocEv
#__ZNK31AppleFWOHCI_AsyncReceiveRequest12getMetaClassEv
#__ZNK31AppleFWOHCI_AsyncReceiveRequest9MetaClass5allocEv
#__ZNK31AppleFWOHCI_CallbackEventSource12getMetaClassEv
#__ZNK31AppleFWOHCI_CallbackEventSource9MetaClass5allocEv
#__ZNK32AppleFWOHCI_AsyncReceiveResponse12getMetaClassEv
#__ZNK32AppleFWOHCI_AsyncReceiveResponse9MetaClass5allocEv
#__ZNK32AppleFWOHCI_AsyncTransmitRequest12getMetaClassEv
#__ZNK32AppleFWOHCI_AsyncTransmitRequest9MetaClass5allocEv
#__ZNK33AppleFWOHCI_AsyncTransmitResponse12getMetaClassEv
#__ZNK33AppleFWOHCI_AsyncTransmitResponse9MetaClass5allocEv
__ZTV11AppleFWOHCI
#__ZTV14AppleFWOHCI_PM
#__ZTV18AppleFWOHCI_PM_PPC
#__ZTV18AppleFWOHCI_PM_x86
#__ZTV19AppleFWOHCI_DCLPool
#__ZTV19AppleFWOHCI_SendDCL
#__ZTV20AppleFWOHCI_IRMSpace
#__ZTV22AppleFWOHCI_DCLProgram
#__ZTV22AppleFWOHCI_DMAManager
#__ZTV22AppleFWOHCI_ReceiveDCL
#__ZTV24AppleFWOHCI_AsyncReceive
#__ZTV24AppleFWOHCI_DCLProgram_U
#__ZTV24AppleFWOHCI_ReceiveDCL_U
#__ZTV24AppleFWOHCI_SkipCycleDCL
#__ZTV25AppleFWOHCI_AsyncTransmit
#__ZTV26AppleFWOHCI_DescriptorPool
#__ZTV29AppleFWOHCI_CallbackContainer
#__ZTV31AppleFWOHCI_AsyncReceiveRequest
#__ZTV31AppleFWOHCI_CallbackEventSource
#__ZTV32AppleFWOHCI_AsyncReceiveResponse
#__ZTV32AppleFWOHCI_AsyncTransmitRequest
#__ZTV33AppleFWOHCI_AsyncTransmitResponse
__ZTVN11AppleFWOHCI9MetaClassE
#__ZTVN14AppleFWOHCI_PM9MetaClassE
#__ZTVN18AppleFWOHCI_PM_PPC9MetaClassE
#__ZTVN18AppleFWOHCI_PM_x869MetaClassE
#__ZTVN19AppleFWOHCI_DCLPool9MetaClassE
#__ZTVN19AppleFWOHCI_SendDCL9MetaClassE
#__ZTVN20AppleFWOHCI_IRMSpace9MetaClassE
#__ZTVN22AppleFWOHCI_DCLProgram9MetaClassE
#__ZTVN22AppleFWOHCI_DMAManager7ContextE
#__ZTVN22AppleFWOHCI_DMAManager9MetaClassE
#__ZTVN22AppleFWOHCI_ReceiveDCL9MetaClassE
#__ZTVN24AppleFWOHCI_AsyncReceive9MetaClassE
#__ZTVN24AppleFWOHCI_DCLProgram_U9MetaClassE
#__ZTVN24AppleFWOHCI_ReceiveDCL_U9MetaClassE
#__ZTVN24AppleFWOHCI_SkipCycleDCL9MetaClassE
#__ZTVN25AppleFWOHCI_AsyncTransmit9MetaClassE
#__ZTVN26AppleFWOHCI_DescriptorPool9MetaClassE
#__ZTVN29AppleFWOHCI_CallbackContainer9MetaClassE
#__ZTVN31AppleFWOHCI_AsyncReceiveRequest9MetaClassE
#__ZTVN31AppleFWOHCI_CallbackEventSource9MetaClassE
#__ZTVN32AppleFWOHCI_AsyncReceiveResponse9MetaClassE
#__ZTVN32AppleFWOHCI_AsyncTransmitRequest9MetaClassE
#__ZTVN33AppleFWOHCI_AsyncTransmitResponse9MetaClassE
_kmod_info

